target datalayout = "e-m:e-p270:32:32-p271:32:32-p272:64:64-i64:64-i128:128-f80:128-n8:16:32:64-S128"
target triple = "x86_64-pc-linux-gnu"

%struct.UConverter = type { ptr, ptr, ptr, ptr, ptr, ptr, ptr, i32, i8, i8, i8, i8, i8, [7 x i8], i32, i32, i32, i32, i8, i8, i8, i8, i8, i8, i8, i8, [8 x i8], [32 x i8], [2 x i16], [2 x i16], [32 x i16], i32, [19 x i16], [31 x i8], i8, i8, i8, i32 }
%struct.UConverterFromUnicodeArgs = type { i16, i8, ptr, ptr, ptr, ptr, ptr, ptr }

@_ZZL33T_UConverter_fromUnicode_UTF32_BEP25UConverterFromUnicodeArgsP10UErrorCodeE3bom = internal constant [4 x i8] c"\00\00\FE\FF", align 1

; Function Attrs: inlinehint mustprogress nounwind uwtable
define internal noundef signext i8 @_ZL9U_SUCCESS10UErrorCode(i32 noundef %0) #4 {
  %2 = alloca i32, align 4
  store i32 %0, ptr %2, align 4, !tbaa !33
  %3 = load i32, ptr %2, align 4, !tbaa !33
  %4 = icmp sle i32 %3, 0
  %5 = zext i1 %4 to i8
  ret i8 %5
}

; Function Attrs: mustprogress uwtable
define internal void @_ZL33T_UConverter_fromUnicode_UTF32_BEP25UConverterFromUnicodeArgsP10UErrorCode(ptr noundef %0, ptr noundef %1) #0 {
  %3 = alloca ptr, align 8
  %4 = alloca ptr, align 8
  %5 = alloca ptr, align 8
  %6 = alloca ptr, align 8
  %7 = alloca ptr, align 8
  %8 = alloca ptr, align 8
  %9 = alloca i32, align 4
  %10 = alloca i32, align 4
  %11 = alloca i32, align 4
  %12 = alloca [4 x i8], align 1
  %13 = alloca i32, align 4
  store ptr %0, ptr %3, align 8, !tbaa !3
  store ptr %1, ptr %4, align 8, !tbaa !3
  call void @llvm.lifetime.start.p0(i64 8, ptr %5) #6
  %14 = load ptr, ptr %3, align 8, !tbaa !3
  %15 = getelementptr inbounds nuw %struct.UConverterFromUnicodeArgs, ptr %14, i32 0, i32 3
  %16 = load ptr, ptr %15, align 8, !tbaa !40
  store ptr %16, ptr %5, align 8, !tbaa !16
  call void @llvm.lifetime.start.p0(i64 8, ptr %6) #6
  call void @llvm.lifetime.start.p0(i64 8, ptr %7) #6
  %17 = load ptr, ptr %3, align 8, !tbaa !3
  %18 = getelementptr inbounds nuw %struct.UConverterFromUnicodeArgs, ptr %17, i32 0, i32 4
  %19 = load ptr, ptr %18, align 8, !tbaa !42
  store ptr %19, ptr %7, align 8, !tbaa !16
  call void @llvm.lifetime.start.p0(i64 8, ptr %8) #6
  %20 = load ptr, ptr %3, align 8, !tbaa !3
  %21 = getelementptr inbounds nuw %struct.UConverterFromUnicodeArgs, ptr %20, i32 0, i32 6
  %22 = load ptr, ptr %21, align 8, !tbaa !43
  store ptr %22, ptr %8, align 8, !tbaa !14
  call void @llvm.lifetime.start.p0(i64 4, ptr %9) #6
  call void @llvm.lifetime.start.p0(i64 4, ptr %10) #6
  call void @llvm.lifetime.start.p0(i64 4, ptr %11) #6
  call void @llvm.lifetime.start.p0(i64 4, ptr %12) #6
  %23 = load ptr, ptr %5, align 8, !tbaa !16
  %24 = load ptr, ptr %7, align 8, !tbaa !16
  %25 = icmp uge ptr %23, %24
  br i1 %25, label %26, label %27

26:                                               ; preds = %2
  store i32 1, ptr %13, align 4
  br label %218

27:                                               ; preds = %2
  %28 = load ptr, ptr %3, align 8, !tbaa !3
  %29 = getelementptr inbounds nuw %struct.UConverterFromUnicodeArgs, ptr %28, i32 0, i32 2
  %30 = load ptr, ptr %29, align 8, !tbaa !44
  %31 = getelementptr inbounds nuw %struct.UConverter, ptr %30, i32 0, i32 16
  %32 = load i32, ptr %31, align 8, !tbaa !45
  %33 = icmp eq i32 %32, 1
  br i1 %33, label %34, label %50

34:                                               ; preds = %27
  %35 = load ptr, ptr %3, align 8, !tbaa !3
  %36 = getelementptr inbounds nuw %struct.UConverterFromUnicodeArgs, ptr %35, i32 0, i32 2
  %37 = load ptr, ptr %36, align 8, !tbaa !44
  %38 = load ptr, ptr %3, align 8, !tbaa !3
  %39 = getelementptr inbounds nuw %struct.UConverterFromUnicodeArgs, ptr %38, i32 0, i32 5
  %40 = load ptr, ptr %3, align 8, !tbaa !3
  %41 = getelementptr inbounds nuw %struct.UConverterFromUnicodeArgs, ptr %40, i32 0, i32 6
  %42 = load ptr, ptr %41, align 8, !tbaa !43
  %43 = load ptr, ptr %3, align 8, !tbaa !3
  %44 = getelementptr inbounds nuw %struct.UConverterFromUnicodeArgs, ptr %43, i32 0, i32 7
  %45 = load ptr, ptr %4, align 8, !tbaa !3
  call void @ucnv_fromUWriteBytes_77(ptr noundef %37, ptr noundef @_ZZL33T_UConverter_fromUnicode_UTF32_BEP25UConverterFromUnicodeArgsP10UErrorCodeE3bom, i32 noundef 4, ptr noundef %39, ptr noundef %42, ptr noundef %44, i32 noundef -1, ptr noundef %45)
  %46 = load ptr, ptr %3, align 8, !tbaa !3
  %47 = getelementptr inbounds nuw %struct.UConverterFromUnicodeArgs, ptr %46, i32 0, i32 2
  %48 = load ptr, ptr %47, align 8, !tbaa !44
  %49 = getelementptr inbounds nuw %struct.UConverter, ptr %48, i32 0, i32 16
  store i32 0, ptr %49, align 8, !tbaa !45
  br label %50

50:                                               ; preds = %34, %27
  %51 = load ptr, ptr %3, align 8, !tbaa !3
  %52 = getelementptr inbounds nuw %struct.UConverterFromUnicodeArgs, ptr %51, i32 0, i32 5
  %53 = load ptr, ptr %52, align 8, !tbaa !46
  store ptr %53, ptr %6, align 8, !tbaa !14
  %54 = getelementptr inbounds [4 x i8], ptr %12, i64 0, i64 0
  store i8 0, ptr %54, align 1, !tbaa !27
  %55 = load ptr, ptr %3, align 8, !tbaa !3
  %56 = getelementptr inbounds nuw %struct.UConverterFromUnicodeArgs, ptr %55, i32 0, i32 2
  %57 = load ptr, ptr %56, align 8, !tbaa !44
  %58 = getelementptr inbounds nuw %struct.UConverter, ptr %57, i32 0, i32 17
  %59 = load i32, ptr %58, align 4, !tbaa !47
  %60 = icmp ne i32 %59, 0
  br i1 %60, label %61, label %71

61:                                               ; preds = %50
  %62 = load ptr, ptr %3, align 8, !tbaa !3
  %63 = getelementptr inbounds nuw %struct.UConverterFromUnicodeArgs, ptr %62, i32 0, i32 2
  %64 = load ptr, ptr %63, align 8, !tbaa !44
  %65 = getelementptr inbounds nuw %struct.UConverter, ptr %64, i32 0, i32 17
  %66 = load i32, ptr %65, align 4, !tbaa !47
  store i32 %66, ptr %9, align 4, !tbaa !25
  %67 = load ptr, ptr %3, align 8, !tbaa !3
  %68 = getelementptr inbounds nuw %struct.UConverterFromUnicodeArgs, ptr %67, i32 0, i32 2
  %69 = load ptr, ptr %68, align 8, !tbaa !44
  %70 = getelementptr inbounds nuw %struct.UConverter, ptr %69, i32 0, i32 17
  store i32 0, ptr %70, align 4, !tbaa !47
  br label %95

71:                                               ; preds = %50
  br label %72

72:                                               ; preds = %195, %71
  %73 = load ptr, ptr %5, align 8, !tbaa !16
  %74 = load ptr, ptr %7, align 8, !tbaa !16
  %75 = icmp ult ptr %73, %74
  br i1 %75, label %76, label %80

76:                                               ; preds = %72
  %77 = load ptr, ptr %6, align 8, !tbaa !14
  %78 = load ptr, ptr %8, align 8, !tbaa !14
  %79 = icmp ult ptr %77, %78
  br label %80

80:                                               ; preds = %76, %72
  %81 = phi i1 [ false, %72 ], [ %79, %76 ]
  br i1 %81, label %82, label %196

82:                                               ; preds = %80
  %83 = load ptr, ptr %5, align 8, !tbaa !16
  %84 = getelementptr inbounds nuw i16, ptr %83, i32 1
  store ptr %84, ptr %5, align 8, !tbaa !16
  %85 = load i16, ptr %83, align 2, !tbaa !30
  %86 = zext i16 %85 to i32
  store i32 %86, ptr %9, align 4, !tbaa !25
  %87 = load i32, ptr %9, align 4, !tbaa !25
  %88 = and i32 %87, -2048
  %89 = icmp eq i32 %88, 55296
  br i1 %89, label %90, label %145

90:                                               ; preds = %82
  %91 = load i32, ptr %9, align 4, !tbaa !25
  %92 = and i32 %91, -1024
  %93 = icmp eq i32 %92, 55296
  br i1 %93, label %94, label %137

94:                                               ; preds = %90
  br label %95

95:                                               ; preds = %94, %61
  %96 = load ptr, ptr %5, align 8, !tbaa !16
  %97 = load ptr, ptr %7, align 8, !tbaa !16
  %98 = icmp ult ptr %96, %97
  br i1 %98, label %99, label %123

99:                                               ; preds = %95
  %100 = load ptr, ptr %5, align 8, !tbaa !16
  %101 = load i16, ptr %100, align 2, !tbaa !30
  %102 = zext i16 %101 to i32
  store i32 %102, ptr %10, align 4, !tbaa !25
  %103 = load i32, ptr %10, align 4, !tbaa !25
  %104 = and i32 %103, -1024
  %105 = icmp eq i32 %104, 56320
  br i1 %105, label %106, label %115

106:                                              ; preds = %99
  %107 = load i32, ptr %9, align 4, !tbaa !25
  %108 = sub nsw i32 %107, 55296
  %109 = shl i32 %108, 10
  %110 = load i32, ptr %10, align 4, !tbaa !25
  %111 = add nsw i32 %109, %110
  %112 = add nsw i32 %111, 9216
  store i32 %112, ptr %9, align 4, !tbaa !25
  %113 = load ptr, ptr %5, align 8, !tbaa !16
  %114 = getelementptr inbounds nuw i16, ptr %113, i32 1
  store ptr %114, ptr %5, align 8, !tbaa !16
  br label %122

115:                                              ; preds = %99
  %116 = load i32, ptr %9, align 4, !tbaa !25
  %117 = load ptr, ptr %3, align 8, !tbaa !3
  %118 = getelementptr inbounds nuw %struct.UConverterFromUnicodeArgs, ptr %117, i32 0, i32 2
  %119 = load ptr, ptr %118, align 8, !tbaa !44
  %120 = getelementptr inbounds nuw %struct.UConverter, ptr %119, i32 0, i32 17
  store i32 %116, ptr %120, align 4, !tbaa !47
  %121 = load ptr, ptr %4, align 8, !tbaa !3
  store i32 12, ptr %121, align 4, !tbaa !33
  br label %196

122:                                              ; preds = %106
  br label %136

123:                                              ; preds = %95
  %124 = load i32, ptr %9, align 4, !tbaa !25
  %125 = load ptr, ptr %3, align 8, !tbaa !3
  %126 = getelementptr inbounds nuw %struct.UConverterFromUnicodeArgs, ptr %125, i32 0, i32 2
  %127 = load ptr, ptr %126, align 8, !tbaa !44
  %128 = getelementptr inbounds nuw %struct.UConverter, ptr %127, i32 0, i32 17
  store i32 %124, ptr %128, align 4, !tbaa !47
  %129 = load ptr, ptr %3, align 8, !tbaa !3
  %130 = getelementptr inbounds nuw %struct.UConverterFromUnicodeArgs, ptr %129, i32 0, i32 1
  %131 = load i8, ptr %130, align 2, !tbaa !48
  %132 = icmp ne i8 %131, 0
  br i1 %132, label %133, label %135

133:                                              ; preds = %123
  %134 = load ptr, ptr %4, align 8, !tbaa !3
  store i32 12, ptr %134, align 4, !tbaa !33
  br label %135

135:                                              ; preds = %133, %123
  br label %196

136:                                              ; preds = %122
  br label %144

137:                                              ; preds = %90
  %138 = load i32, ptr %9, align 4, !tbaa !25
  %139 = load ptr, ptr %3, align 8, !tbaa !3
  %140 = getelementptr inbounds nuw %struct.UConverterFromUnicodeArgs, ptr %139, i32 0, i32 2
  %141 = load ptr, ptr %140, align 8, !tbaa !44
  %142 = getelementptr inbounds nuw %struct.UConverter, ptr %141, i32 0, i32 17
  store i32 %138, ptr %142, align 4, !tbaa !47
  %143 = load ptr, ptr %4, align 8, !tbaa !3
  store i32 12, ptr %143, align 4, !tbaa !33
  br label %196

144:                                              ; preds = %136
  br label %145

145:                                              ; preds = %144, %82
  %146 = load i32, ptr %9, align 4, !tbaa !25
  %147 = ashr i32 %146, 16
  %148 = and i32 %147, 31
  %149 = trunc i32 %148 to i8
  %150 = getelementptr inbounds [4 x i8], ptr %12, i64 0, i64 1
  store i8 %149, ptr %150, align 1, !tbaa !27
  %151 = load i32, ptr %9, align 4, !tbaa !25
  %152 = ashr i32 %151, 8
  %153 = trunc i32 %152 to i8
  %154 = getelementptr inbounds [4 x i8], ptr %12, i64 0, i64 2
  store i8 %153, ptr %154, align 1, !tbaa !27
  %155 = load i32, ptr %9, align 4, !tbaa !25
  %156 = trunc i32 %155 to i8
  %157 = getelementptr inbounds [4 x i8], ptr %12, i64 0, i64 3
  store i8 %156, ptr %157, align 1, !tbaa !27
  store i32 0, ptr %11, align 4, !tbaa !25
  br label %158

158:                                              ; preds = %192, %145
  %159 = load i32, ptr %11, align 4, !tbaa !25
  %160 = zext i32 %159 to i64
  %161 = icmp ule i64 %160, 3
  br i1 %161, label %162, label %195

162:                                              ; preds = %158
  %163 = load ptr, ptr %6, align 8, !tbaa !14
  %164 = load ptr, ptr %8, align 8, !tbaa !14
  %165 = icmp ult ptr %163, %164
  br i1 %165, label %166, label %173

166:                                              ; preds = %162
  %167 = load i32, ptr %11, align 4, !tbaa !25
  %168 = zext i32 %167 to i64
  %169 = getelementptr inbounds nuw [4 x i8], ptr %12, i64 0, i64 %168
  %170 = load i8, ptr %169, align 1, !tbaa !27
  %171 = load ptr, ptr %6, align 8, !tbaa !14
  %172 = getelementptr inbounds nuw i8, ptr %171, i32 1
  store ptr %172, ptr %6, align 8, !tbaa !14
  store i8 %170, ptr %171, align 1, !tbaa !27
  br label %191

173:                                              ; preds = %162
  %174 = load i32, ptr %11, align 4, !tbaa !25
  %175 = zext i32 %174 to i64
  %176 = getelementptr inbounds nuw [4 x i8], ptr %12, i64 0, i64 %175
  %177 = load i8, ptr %176, align 1, !tbaa !27
  %178 = load ptr, ptr %3, align 8, !tbaa !3
  %179 = getelementptr inbounds nuw %struct.UConverterFromUnicodeArgs, ptr %178, i32 0, i32 2
  %180 = load ptr, ptr %179, align 8, !tbaa !44
  %181 = getelementptr inbounds nuw %struct.UConverter, ptr %180, i32 0, i32 27
  %182 = load ptr, ptr %3, align 8, !tbaa !3
  %183 = getelementptr inbounds nuw %struct.UConverterFromUnicodeArgs, ptr %182, i32 0, i32 2
  %184 = load ptr, ptr %183, align 8, !tbaa !44
  %185 = getelementptr inbounds nuw %struct.UConverter, ptr %184, i32 0, i32 21
  %186 = load i8, ptr %185, align 1, !tbaa !49
  %187 = add i8 %186, 1
  store i8 %187, ptr %185, align 1, !tbaa !49
  %188 = sext i8 %186 to i64
  %189 = getelementptr inbounds [32 x i8], ptr %181, i64 0, i64 %188
  store i8 %177, ptr %189, align 1, !tbaa !27
  %190 = load ptr, ptr %4, align 8, !tbaa !3
  store i32 15, ptr %190, align 4, !tbaa !33
  br label %191

191:                                              ; preds = %173, %166
  br label %192

192:                                              ; preds = %191
  %193 = load i32, ptr %11, align 4, !tbaa !25
  %194 = add i32 %193, 1
  store i32 %194, ptr %11, align 4, !tbaa !25
  br label %158, !llvm.loop !50

195:                                              ; preds = %158
  br label %72, !llvm.loop !51

196:                                              ; preds = %137, %135, %115, %80
  %197 = load ptr, ptr %5, align 8, !tbaa !16
  %198 = load ptr, ptr %7, align 8, !tbaa !16
  %199 = icmp ult ptr %197, %198
  br i1 %199, label %200, label %211

200:                                              ; preds = %196
  %201 = load ptr, ptr %6, align 8, !tbaa !14
  %202 = load ptr, ptr %8, align 8, !tbaa !14
  %203 = icmp uge ptr %201, %202
  br i1 %203, label %204, label %211

204:                                              ; preds = %200
  %205 = load ptr, ptr %4, align 8, !tbaa !3
  %206 = load i32, ptr %205, align 4, !tbaa !33
  %207 = call noundef signext i8 @_ZL9U_SUCCESS10UErrorCode(i32 noundef %206)
  %208 = icmp ne i8 %207, 0
  br i1 %208, label %209, label %211

209:                                              ; preds = %204
  %210 = load ptr, ptr %4, align 8, !tbaa !3
  store i32 15, ptr %210, align 4, !tbaa !33
  br label %211

211:                                              ; preds = %209, %204, %200, %196
  %212 = load ptr, ptr %6, align 8, !tbaa !14
  %213 = load ptr, ptr %3, align 8, !tbaa !3
  %214 = getelementptr inbounds nuw %struct.UConverterFromUnicodeArgs, ptr %213, i32 0, i32 5
  store ptr %212, ptr %214, align 8, !tbaa !46
  %215 = load ptr, ptr %5, align 8, !tbaa !16
  %216 = load ptr, ptr %3, align 8, !tbaa !3
  %217 = getelementptr inbounds nuw %struct.UConverterFromUnicodeArgs, ptr %216, i32 0, i32 3
  store ptr %215, ptr %217, align 8, !tbaa !40
  store i32 0, ptr %13, align 4
  br label %218

218:                                              ; preds = %211, %26
  call void @llvm.lifetime.end.p0(i64 4, ptr %12) #6
  call void @llvm.lifetime.end.p0(i64 4, ptr %11) #6
  call void @llvm.lifetime.end.p0(i64 4, ptr %10) #6
  call void @llvm.lifetime.end.p0(i64 4, ptr %9) #6
  call void @llvm.lifetime.end.p0(i64 8, ptr %8) #6
  call void @llvm.lifetime.end.p0(i64 8, ptr %7) #6
  call void @llvm.lifetime.end.p0(i64 8, ptr %6) #6
  call void @llvm.lifetime.end.p0(i64 8, ptr %5) #6
  %219 = load i32, ptr %13, align 4
  switch i32 %219, label %221 [
    i32 0, label %220
    i32 1, label %220
  ]

220:                                              ; preds = %218, %218
  ret void

221:                                              ; preds = %218
  unreachable
}