; Function Attrs: mustprogress uwtable
define internal void @_ZL33T_UConverter_fromUnicode_UTF32_BEP25UConverterFromUnicodeArgsP10UErrorCode(ptr noundef %0, ptr noundef %1) #1 {
  %3 = alloca [4 x i8], align 1
  %4 = getelementptr inbounds nuw i8, ptr %0, i64 16
  %5 = load ptr, ptr %4, align 8, !tbaa !36
  %6 = getelementptr inbounds nuw i8, ptr %0, i64 24
  %7 = load ptr, ptr %6, align 8, !tbaa !38
  %8 = getelementptr inbounds nuw i8, ptr %0, i64 40
  %9 = load ptr, ptr %8, align 8, !tbaa !39
  call void @llvm.lifetime.start.p0(i64 4, ptr nonnull %3) #7
  %.not = icmp ult ptr %5, %7
  br i1 %.not, label %10, label %91

10:                                               ; preds = %2
  %11 = getelementptr inbounds nuw i8, ptr %0, i64 8
  %12 = load ptr, ptr %11, align 8, !tbaa !40
  %13 = getelementptr inbounds nuw i8, ptr %12, i64 80
  %14 = load i32, ptr %13, align 8, !tbaa !41
  %15 = icmp eq i32 %14, 1
  br i1 %15, label %16, label %21

16:                                               ; preds = %10
  %17 = getelementptr inbounds nuw i8, ptr %0, i64 32
  %18 = getelementptr inbounds nuw i8, ptr %0, i64 48
  tail call void @ucnv_fromUWriteBytes_77(ptr noundef nonnull %12, ptr noundef nonnull @_ZZL33T_UConverter_fromUnicode_UTF32_BEP25UConverterFromUnicodeArgsP10UErrorCodeE3bom, i32 noundef 4, ptr noundef nonnull %17, ptr noundef %9, ptr noundef nonnull %18, i32 noundef -1, ptr noundef %1)
  %19 = load ptr, ptr %11, align 8, !tbaa !40
  %20 = getelementptr inbounds nuw i8, ptr %19, i64 80
  store i32 0, ptr %20, align 8, !tbaa !41
  br label %21

21:                                               ; preds = %16, %10
  %22 = phi ptr [ %19, %16 ], [ %12, %10 ]
  %23 = getelementptr inbounds nuw i8, ptr %0, i64 32
  %24 = load ptr, ptr %23, align 8, !tbaa !42
  store i8 0, ptr %3, align 1, !tbaa !23
  %25 = getelementptr inbounds nuw i8, ptr %22, i64 84
  %26 = load i32, ptr %25, align 4, !tbaa !43
  %.not73 = icmp eq i32 %26, 0
  br i1 %.not73, label %.loopexit, label %27

27:                                               ; preds = %21
  store i32 0, ptr %25, align 4, !tbaa !43
  br label %40

.loopexit:                                        ; preds = %81, %21
  %.166 = phi ptr [ %24, %21 ], [ %.5, %81 ]
  %.1 = phi ptr [ %5, %21 ], [ %.3, %81 ]
  %28 = icmp ult ptr %.1, %7
  %29 = icmp ult ptr %.166, %9
  %30 = select i1 %28, i1 %29, i1 false
  br i1 %30, label %31, label %84

31:                                               ; preds = %.loopexit
  %32 = getelementptr inbounds nuw i8, ptr %.1, i64 2
  %33 = load i16, ptr %.1, align 2, !tbaa !26
  %34 = zext i16 %33 to i32
  %35 = and i32 %34, 63488
  %36 = icmp eq i32 %35, 55296
  br i1 %36, label %37, label %57

37:                                               ; preds = %31
  %38 = and i32 %34, 56320
  %39 = icmp eq i32 %38, 55296
  br i1 %39, label %40, label %.sink.split.sink.split

40:                                               ; preds = %37, %27
  %.065 = phi ptr [ %24, %27 ], [ %.166, %37 ]
  %.063 = phi i32 [ %26, %27 ], [ %34, %37 ]
  %.062 = phi ptr [ %5, %27 ], [ %32, %37 ]
  %41 = icmp ult ptr %.062, %7
  br i1 %41, label %42, label %52

42:                                               ; preds = %40
  %43 = load i16, ptr %.062, align 2, !tbaa !26
  %44 = zext i16 %43 to i32
  %45 = and i32 %44, 64512
  %46 = icmp eq i32 %45, 56320
  br i1 %46, label %47, label %.sink.split.sink.split

47:                                               ; preds = %42
  %48 = shl i32 %.063, 10
  %49 = add i32 %48, -56613888
  %50 = add i32 %49, %44
  %51 = getelementptr inbounds nuw i8, ptr %.062, i64 2
  br label %57

52:                                               ; preds = %40
  %53 = load ptr, ptr %11, align 8, !tbaa !40
  %54 = getelementptr inbounds nuw i8, ptr %53, i64 84
  store i32 %.063, ptr %54, align 4, !tbaa !43
  %55 = getelementptr inbounds nuw i8, ptr %0, i64 2
  %56 = load i8, ptr %55, align 2, !tbaa !44
  %.not74 = icmp eq i8 %56, 0
  br i1 %.not74, label %84, label %.sink.split

57:                                               ; preds = %47, %31
  %.368 = phi ptr [ %.065, %47 ], [ %.166, %31 ]
  %.164 = phi i32 [ %50, %47 ], [ %34, %31 ]
  %.3 = phi ptr [ %51, %47 ], [ %32, %31 ]
  %58 = lshr i32 %.164, 16
  %59 = trunc i32 %58 to i8
  %60 = and i8 %59, 31
  %61 = getelementptr inbounds nuw i8, ptr %3, i64 1
  store i8 %60, ptr %61, align 1, !tbaa !23
  %62 = lshr i32 %.164, 8
  %63 = trunc i32 %62 to i8
  %64 = getelementptr inbounds nuw i8, ptr %3, i64 2
  store i8 %63, ptr %64, align 1, !tbaa !23
  %65 = trunc i32 %.164 to i8
  %66 = getelementptr inbounds nuw i8, ptr %3, i64 3
  store i8 %65, ptr %66, align 1, !tbaa !23
  br label %67

67:                                               ; preds = %57, %81
  %indvars.iv = phi i64 [ 0, %57 ], [ %indvars.iv.next, %81 ]
  %.477 = phi ptr [ %.368, %57 ], [ %.5, %81 ]
  %68 = icmp ult ptr %.477, %9
  %69 = getelementptr inbounds nuw [4 x i8], ptr %3, i64 0, i64 %indvars.iv
  %70 = load i8, ptr %69, align 1, !tbaa !23
  br i1 %68, label %71, label %73

71:                                               ; preds = %67
  %72 = getelementptr inbounds nuw i8, ptr %.477, i64 1
  store i8 %70, ptr %.477, align 1, !tbaa !23
  br label %81

73:                                               ; preds = %67
  %74 = load ptr, ptr %11, align 8, !tbaa !40
  %75 = getelementptr inbounds nuw i8, ptr %74, i64 104
  %76 = getelementptr inbounds nuw i8, ptr %74, i64 91
  %77 = load i8, ptr %76, align 1, !tbaa !45
  %78 = add i8 %77, 1
  store i8 %78, ptr %76, align 1, !tbaa !45
  %79 = sext i8 %77 to i64
  %80 = getelementptr inbounds [32 x i8], ptr %75, i64 0, i64 %79
  store i8 %70, ptr %80, align 1, !tbaa !23
  store i32 15, ptr %1, align 4, !tbaa !30
  br label %81

81:                                               ; preds = %71, %73
  %.5 = phi ptr [ %72, %71 ], [ %.477, %73 ]
  %indvars.iv.next = add nuw nsw i64 %indvars.iv, 1
  %exitcond.not = icmp eq i64 %indvars.iv.next, 4
  br i1 %exitcond.not, label %.loopexit, label %67, !llvm.loop !46

.sink.split.sink.split:                           ; preds = %37, %42
  %.063.sink = phi i32 [ %.063, %42 ], [ %34, %37 ]
  %.267.ph.ph = phi ptr [ %.065, %42 ], [ %.166, %37 ]
  %.2.ph.ph = phi ptr [ %.062, %42 ], [ %32, %37 ]
  %82 = load ptr, ptr %11, align 8, !tbaa !40
  %83 = getelementptr inbounds nuw i8, ptr %82, i64 84
  store i32 %.063.sink, ptr %83, align 4, !tbaa !43
  br label %.sink.split

.sink.split:                                      ; preds = %.sink.split.sink.split, %52
  %.267.ph = phi ptr [ %.065, %52 ], [ %.267.ph.ph, %.sink.split.sink.split ]
  %.2.ph = phi ptr [ %.062, %52 ], [ %.2.ph.ph, %.sink.split.sink.split ]
  store i32 12, ptr %1, align 4, !tbaa !30
  br label %84

84:                                               ; preds = %.sink.split, %52, %.loopexit
  %.267 = phi ptr [ %.166, %.loopexit ], [ %.065, %52 ], [ %.267.ph, %.sink.split ]
  %.2 = phi ptr [ %.1, %.loopexit ], [ %.062, %52 ], [ %.2.ph, %.sink.split ]
  %85 = icmp uge ptr %.2, %7
  %.not75 = icmp ult ptr %.267, %9
  %or.cond = select i1 %85, i1 true, i1 %.not75
  br i1 %or.cond, label %90, label %86

86:                                               ; preds = %84
  %87 = load i32, ptr %1, align 4, !tbaa !30
  %88 = icmp sgt i32 %87, 0
  br i1 %88, label %90, label %89

89:                                               ; preds = %86
  store i32 15, ptr %1, align 4, !tbaa !30
  br label %90

90:                                               ; preds = %89, %86, %84
  store ptr %.267, ptr %23, align 8, !tbaa !42
  store ptr %.2, ptr %4, align 8, !tbaa !36
  br label %91

91:                                               ; preds = %2, %90
  call void @llvm.lifetime.end.p0(i64 4, ptr nonnull %3) #7
  ret void
}